ARM GAS  C:\Users\yurao\AppData\Local\Temp\ccrDXDGP.s 			page 1


   1              		.syntax unified
   2              		.cpu cortex-m3
   3              		.fpu softvfp
   4              		.eabi_attribute 20, 1
   5              		.eabi_attribute 21, 1
   6              		.eabi_attribute 23, 3
   7              		.eabi_attribute 24, 1
   8              		.eabi_attribute 25, 1
   9              		.eabi_attribute 26, 1
  10              		.eabi_attribute 30, 1
  11              		.eabi_attribute 34, 1
  12              		.eabi_attribute 18, 4
  13              		.thumb
  14              		.syntax unified
  15              		.file	"main.c"
  16              		.text
  17              	.Ltext0:
  18              		.cfi_sections	.debug_frame
  19              		.section	.text.HDB3_Codec,"ax",%progbits
  20              		.align	2
  21              		.global	HDB3_Codec
  22              		.thumb
  23              		.thumb_func
  24              		.type	HDB3_Codec, %function
  25              	HDB3_Codec:
  26              	.LFB64:
  27              		.file 1 "main.c"
   1:main.c        **** /* ========================================
   2:main.c        ****  *
   3:main.c        ****  * Copyright YOUR COMPANY, THE YEAR
   4:main.c        ****  * All Rights Reserved
   5:main.c        ****  * UNPUBLISHED, LICENSED SOFTWARE.
   6:main.c        ****  *
   7:main.c        ****  * CONFIDENTIAL AND PROPRIETARY INFORMATION
   8:main.c        ****  * WHICH IS THE PROPERTY OF your company.
   9:main.c        ****  *
  10:main.c        ****  * ========================================
  11:main.c        **** */
  12:main.c        **** #include "project.h"
  13:main.c        **** 
  14:main.c        **** void HDB3_Codec(int* code, int sizeArey); // Прототип функції
  15:main.c        **** //void outIDAC(int* code, int sizeArey);
  16:main.c        **** 
  17:main.c        **** #define HIGH_LEVEL 255
  18:main.c        **** #define LOW_LEVEL  0
  19:main.c        **** #define GND_LEVEL  128
  20:main.c        **** 
  21:main.c        **** int code [3] = {1011, 0000, 1010};
  22:main.c        **** 
  23:main.c        **** int main(void)
  24:main.c        **** {
  25:main.c        ****     CyGlobalIntEnable; /* Enable global interrupts. */
  26:main.c        ****     IDAC8_1_Start(); // Ініціалізація iDAC і початок його роботи.
  27:main.c        ****     
  28:main.c        ****     /* Place your initialization/startup code here (e.g. MyInst_Start()) */
  29:main.c        **** 
  30:main.c        ****     for(;;)
ARM GAS  C:\Users\yurao\AppData\Local\Temp\ccrDXDGP.s 			page 2


  31:main.c        ****     {
  32:main.c        **** 
  33:main.c        ****         HDB3_Codec(code, 3);
  34:main.c        ****         
  35:main.c        ****     }
  36:main.c        **** }
  37:main.c        **** 
  38:main.c        **** void HDB3_Codec(int* code, int sizeArey)
  39:main.c        **** {
  28              		.loc 1 39 0
  29              		.cfi_startproc
  30              		@ args = 0, pretend = 0, frame = 0
  31              		@ frame_needed = 0, uses_anonymous_args = 0
  32              	.LVL0:
  33 0000 F8B5     		push	{r3, r4, r5, r6, r7, lr}
  34              		.cfi_def_cfa_offset 24
  35              		.cfi_offset 3, -24
  36              		.cfi_offset 4, -20
  37              		.cfi_offset 5, -16
  38              		.cfi_offset 6, -12
  39              		.cfi_offset 7, -8
  40              		.cfi_offset 14, -4
  41 0002 0546     		mov	r5, r0
  42 0004 0F46     		mov	r7, r1
  43              	.LVL1:
  40:main.c        **** 
  41:main.c        ****     int i;
  42:main.c        ****     for(i = 0; i < sizeArey; i++)
  44              		.loc 1 42 0
  45 0006 0024     		movs	r4, #0
  46 0008 47E0     		b	.L2
  47              	.LVL2:
  48              	.L6:
  43:main.c        ****     {
  44:main.c        ****         if (code[i] == 1011)
  49              		.loc 1 44 0
  50 000a A600     		lsls	r6, r4, #2
  51 000c 55F82420 		ldr	r2, [r5, r4, lsl #2]
  52 0010 40F2F333 		movw	r3, #1011
  53 0014 9A42     		cmp	r2, r3
  54 0016 11D1     		bne	.L3
  45:main.c        ****         {
  46:main.c        ****           IDAC8_1_SetValue(LOW_LEVEL);
  55              		.loc 1 46 0
  56 0018 0020     		movs	r0, #0
  57 001a FFF7FEFF 		bl	IDAC8_1_SetValue
  58              	.LVL3:
  47:main.c        ****         CyDelay(100);
  59              		.loc 1 47 0
  60 001e 6420     		movs	r0, #100
  61 0020 FFF7FEFF 		bl	CyDelay
  62              	.LVL4:
  48:main.c        ****           IDAC8_1_SetValue(GND_LEVEL);
  63              		.loc 1 48 0
  64 0024 8020     		movs	r0, #128
  65 0026 FFF7FEFF 		bl	IDAC8_1_SetValue
  66              	.LVL5:
ARM GAS  C:\Users\yurao\AppData\Local\Temp\ccrDXDGP.s 			page 3


  49:main.c        ****         CyDelay(100);
  67              		.loc 1 49 0
  68 002a 6420     		movs	r0, #100
  69 002c FFF7FEFF 		bl	CyDelay
  70              	.LVL6:
  50:main.c        ****           IDAC8_1_SetValue(GND_LEVEL);
  71              		.loc 1 50 0
  72 0030 8020     		movs	r0, #128
  73 0032 FFF7FEFF 		bl	IDAC8_1_SetValue
  74              	.LVL7:
  51:main.c        ****         CyDelay(100);
  75              		.loc 1 51 0
  76 0036 6420     		movs	r0, #100
  77 0038 FFF7FEFF 		bl	CyDelay
  78              	.LVL8:
  79              	.L3:
  52:main.c        ****         }
  53:main.c        ****         if(code[i] == 0000)
  80              		.loc 1 53 0
  81 003c AB59     		ldr	r3, [r5, r6]
  82 003e 8BB9     		cbnz	r3, .L4
  54:main.c        ****         {
  55:main.c        ****            IDAC8_1_SetValue(HIGH_LEVEL);
  83              		.loc 1 55 0
  84 0040 FF20     		movs	r0, #255
  85 0042 FFF7FEFF 		bl	IDAC8_1_SetValue
  86              	.LVL9:
  56:main.c        ****         CyDelay(100);
  87              		.loc 1 56 0
  88 0046 6420     		movs	r0, #100
  89 0048 FFF7FEFF 		bl	CyDelay
  90              	.LVL10:
  57:main.c        ****            IDAC8_1_SetValue(GND_LEVEL);
  91              		.loc 1 57 0
  92 004c 8020     		movs	r0, #128
  93 004e FFF7FEFF 		bl	IDAC8_1_SetValue
  94              	.LVL11:
  58:main.c        ****         CyDelay(100);
  95              		.loc 1 58 0
  96 0052 6420     		movs	r0, #100
  97 0054 FFF7FEFF 		bl	CyDelay
  98              	.LVL12:
  59:main.c        ****            IDAC8_1_SetValue(LOW_LEVEL);
  99              		.loc 1 59 0
 100 0058 0020     		movs	r0, #0
 101 005a FFF7FEFF 		bl	IDAC8_1_SetValue
 102              	.LVL13:
  60:main.c        ****         CyDelay(100);
 103              		.loc 1 60 0
 104 005e 6420     		movs	r0, #100
 105 0060 FFF7FEFF 		bl	CyDelay
 106              	.LVL14:
 107              	.L4:
  61:main.c        ****         }
  62:main.c        ****         if(code[i] == 1010)
 108              		.loc 1 62 0
 109 0064 AA59     		ldr	r2, [r5, r6]
ARM GAS  C:\Users\yurao\AppData\Local\Temp\ccrDXDGP.s 			page 4


 110 0066 40F2F233 		movw	r3, #1010
 111 006a 9A42     		cmp	r2, r3
 112 006c 11D1     		bne	.L5
  63:main.c        ****         {
  64:main.c        ****            IDAC8_1_SetValue(LOW_LEVEL);
 113              		.loc 1 64 0
 114 006e 0020     		movs	r0, #0
 115 0070 FFF7FEFF 		bl	IDAC8_1_SetValue
 116              	.LVL15:
  65:main.c        ****         CyDelay(100);
 117              		.loc 1 65 0
 118 0074 6420     		movs	r0, #100
 119 0076 FFF7FEFF 		bl	CyDelay
 120              	.LVL16:
  66:main.c        ****            IDAC8_1_SetValue(HIGH_LEVEL);
 121              		.loc 1 66 0
 122 007a FF20     		movs	r0, #255
 123 007c FFF7FEFF 		bl	IDAC8_1_SetValue
 124              	.LVL17:
  67:main.c        ****         CyDelay(100);
 125              		.loc 1 67 0
 126 0080 6420     		movs	r0, #100
 127 0082 FFF7FEFF 		bl	CyDelay
 128              	.LVL18:
  68:main.c        ****            IDAC8_1_SetValue(LOW_LEVEL);
 129              		.loc 1 68 0
 130 0086 0020     		movs	r0, #0
 131 0088 FFF7FEFF 		bl	IDAC8_1_SetValue
 132              	.LVL19:
  69:main.c        ****         CyDelay(100);
 133              		.loc 1 69 0
 134 008c 6420     		movs	r0, #100
 135 008e FFF7FEFF 		bl	CyDelay
 136              	.LVL20:
 137              	.L5:
  70:main.c        ****         }
  71:main.c        ****         CyDelay(100);
 138              		.loc 1 71 0 discriminator 2
 139 0092 6420     		movs	r0, #100
 140 0094 FFF7FEFF 		bl	CyDelay
 141              	.LVL21:
  42:main.c        ****     {
 142              		.loc 1 42 0 discriminator 2
 143 0098 0134     		adds	r4, r4, #1
 144              	.LVL22:
 145              	.L2:
  42:main.c        ****     {
 146              		.loc 1 42 0 is_stmt 0 discriminator 1
 147 009a BC42     		cmp	r4, r7
 148 009c B5DB     		blt	.L6
  72:main.c        ****     }
  73:main.c        **** }
 149              		.loc 1 73 0 is_stmt 1
 150 009e F8BD     		pop	{r3, r4, r5, r6, r7, pc}
 151              		.cfi_endproc
 152              	.LFE64:
 153              		.size	HDB3_Codec, .-HDB3_Codec
ARM GAS  C:\Users\yurao\AppData\Local\Temp\ccrDXDGP.s 			page 5


 154              		.section	.text.main,"ax",%progbits
 155              		.align	2
 156              		.global	main
 157              		.thumb
 158              		.thumb_func
 159              		.type	main, %function
 160              	main:
 161              	.LFB63:
  24:main.c        ****     CyGlobalIntEnable; /* Enable global interrupts. */
 162              		.loc 1 24 0
 163              		.cfi_startproc
 164              		@ Volatile: function does not return.
 165              		@ args = 0, pretend = 0, frame = 0
 166              		@ frame_needed = 0, uses_anonymous_args = 0
 167 0000 08B5     		push	{r3, lr}
 168              		.cfi_def_cfa_offset 8
 169              		.cfi_offset 3, -8
 170              		.cfi_offset 14, -4
  25:main.c        ****     IDAC8_1_Start(); // Ініціалізація iDAC і початок його роботи.
 171              		.loc 1 25 0
 172              		.syntax unified
 173              	@ 25 "main.c" 1
 174 0002 62B6     		CPSIE   i
 175              	@ 0 "" 2
  26:main.c        ****     
 176              		.loc 1 26 0
 177              		.thumb
 178              		.syntax unified
 179 0004 FFF7FEFF 		bl	IDAC8_1_Start
 180              	.LVL23:
 181              	.L9:
  33:main.c        ****         
 182              		.loc 1 33 0 discriminator 1
 183 0008 0321     		movs	r1, #3
 184 000a 0248     		ldr	r0, .L11
 185 000c FFF7FEFF 		bl	HDB3_Codec
 186              	.LVL24:
 187 0010 FAE7     		b	.L9
 188              	.L12:
 189 0012 00BF     		.align	2
 190              	.L11:
 191 0014 00000000 		.word	.LANCHOR0
 192              		.cfi_endproc
 193              	.LFE63:
 194              		.size	main, .-main
 195              		.global	code
 196              		.data
 197              		.align	2
 198              		.set	.LANCHOR0,. + 0
 199              		.type	code, %object
 200              		.size	code, 12
 201              	code:
 202 0000 F3030000 		.word	1011
 203 0004 00000000 		.word	0
 204 0008 F2030000 		.word	1010
 205              		.text
 206              	.Letext0:
ARM GAS  C:\Users\yurao\AppData\Local\Temp\ccrDXDGP.s 			page 6


 207              		.file 2 "f:\\psoccreatorsetup\\psoc creator\\4.4\\psoc creator\\import\\gnu\\arm\\5.4.1\\arm-none-
 208              		.file 3 "f:\\psoccreatorsetup\\psoc creator\\4.4\\psoc creator\\import\\gnu\\arm\\5.4.1\\arm-none-
 209              		.file 4 "Generated_Source\\PSoC5/core_cm3.h"
 210              		.file 5 "Generated_Source\\PSoC5/IDAC8_1.h"
 211              		.file 6 "Generated_Source\\PSoC5/CyLib.h"