ARM GAS  C:\Users\slavi\AppData\Local\Temp\ccKdxulV.s 			page 1


   1              		.syntax unified
   2              		.cpu cortex-m3
   3              		.fpu softvfp
   4              		.eabi_attribute 20, 1
   5              		.eabi_attribute 21, 1
   6              		.eabi_attribute 23, 3
   7              		.eabi_attribute 24, 1
   8              		.eabi_attribute 25, 1
   9              		.eabi_attribute 26, 1
  10              		.eabi_attribute 30, 1
  11              		.eabi_attribute 34, 1
  12              		.eabi_attribute 18, 4
  13              		.thumb
  14              		.syntax unified
  15              		.file	"main.c"
  16              		.text
  17              	.Ltext0:
  18              		.cfi_sections	.debug_frame
  19              		.section	.text.main,"ax",%progbits
  20              		.align	2
  21              		.global	main
  22              		.thumb
  23              		.thumb_func
  24              		.type	main, %function
  25              	main:
  26              	.LFB63:
  27              		.file 1 "main.c"
   1:main.c        **** #include "project.h"
   2:main.c        **** #define SIZE(x) sizeof(x)/sizeof(x[0])
   3:main.c        **** #define MINUS 0
   4:main.c        **** #define PLUS 255
   5:main.c        **** uint8 signal[]={1,0,1,1,0,0,0,0,1,0,1,0};
   6:main.c        **** 
   7:main.c        **** int main(void)
   8:main.c        **** {
  28              		.loc 1 8 0
  29              		.cfi_startproc
  30              		@ args = 0, pretend = 0, frame = 0
  31              		@ frame_needed = 0, uses_anonymous_args = 0
  32 0000 38B5     		push	{r3, r4, r5, lr}
  33              		.cfi_def_cfa_offset 16
  34              		.cfi_offset 3, -16
  35              		.cfi_offset 4, -12
  36              		.cfi_offset 5, -8
  37              		.cfi_offset 14, -4
   9:main.c        ****     CyGlobalIntEnable; 
  38              		.loc 1 9 0
  39              		.syntax unified
  40              	@ 9 "main.c" 1
  41 0002 62B6     		CPSIE   i
  42              	@ 0 "" 2
  10:main.c        ****     
  11:main.c        ****     if( SIZE(signal)%3 == 0)
  12:main.c        ****         VDAC8_Start();
  43              		.loc 1 12 0
  44              		.thumb
  45              		.syntax unified
ARM GAS  C:\Users\slavi\AppData\Local\Temp\ccKdxulV.s 			page 2


  46 0004 FFF7FEFF 		bl	VDAC8_Start
  47              	.LVL0:
  13:main.c        ****     uint8 RDS = 0;
  48              		.loc 1 13 0
  49 0008 0025     		movs	r5, #0
  50              	.LVL1:
  51              	.L15:
  52              	.LBB2:
  14:main.c        ****     for(;;)
  15:main.c        ****     {
  16:main.c        ****         for(uint8 i = 0; i < SIZE(signal); i+=3)
  53              		.loc 1 16 0
  54 000a 0024     		movs	r4, #0
  55 000c 80E1     		b	.L2
  56              	.LVL2:
  57              	.L14:
  17:main.c        ****         {
  18:main.c        ****             if(signal[i] == 0 && signal[i+1] == 0 && signal[i+2] == 0)  //000
  58              		.loc 1 18 0
  59 000e 2246     		mov	r2, r4
  60 0010 C14B     		ldr	r3, .L17
  61 0012 1B5D     		ldrb	r3, [r3, r4]	@ zero_extendqisi2
  62 0014 1BBB     		cbnz	r3, .L3
  63              		.loc 1 18 0 is_stmt 0 discriminator 1
  64 0016 611C     		adds	r1, r4, #1
  65 0018 BF48     		ldr	r0, .L17
  66 001a 415C     		ldrb	r1, [r0, r1]	@ zero_extendqisi2
  67 001c F9B9     		cbnz	r1, .L3
  68              		.loc 1 18 0 discriminator 2
  69 001e A11C     		adds	r1, r4, #2
  70 0020 415C     		ldrb	r1, [r0, r1]	@ zero_extendqisi2
  71 0022 E1B9     		cbnz	r1, .L3
  19:main.c        ****             {
  20:main.c        ****                 VDAC8_SetValue(MINUS);
  72              		.loc 1 20 0 is_stmt 1
  73 0024 0020     		movs	r0, #0
  74 0026 FFF7FEFF 		bl	VDAC8_SetValue
  75              	.LVL3:
  21:main.c        ****                 CyDelay(1000);
  76              		.loc 1 21 0
  77 002a 4FF47A70 		mov	r0, #1000
  78 002e FFF7FEFF 		bl	CyDelay
  79              	.LVL4:
  22:main.c        ****                 VDAC8_SetValue(MINUS);
  80              		.loc 1 22 0
  81 0032 0020     		movs	r0, #0
  82 0034 FFF7FEFF 		bl	VDAC8_SetValue
  83              	.LVL5:
  23:main.c        ****                 CyDelay(1000);
  84              		.loc 1 23 0
  85 0038 4FF47A70 		mov	r0, #1000
  86 003c FFF7FEFF 		bl	CyDelay
  87              	.LVL6:
  24:main.c        ****                 VDAC8_SetValue(PLUS);
  88              		.loc 1 24 0
  89 0040 FF20     		movs	r0, #255
  90 0042 FFF7FEFF 		bl	VDAC8_SetValue
ARM GAS  C:\Users\slavi\AppData\Local\Temp\ccKdxulV.s 			page 3


  91              	.LVL7:
  25:main.c        ****                 CyDelay(1000);
  92              		.loc 1 25 0
  93 0046 4FF47A70 		mov	r0, #1000
  94 004a FFF7FEFF 		bl	CyDelay
  95              	.LVL8:
  26:main.c        ****                 VDAC8_SetValue(PLUS);
  96              		.loc 1 26 0
  97 004e FF20     		movs	r0, #255
  98 0050 FFF7FEFF 		bl	VDAC8_SetValue
  99              	.LVL9:
  27:main.c        ****                 CyDelay(1000);
 100              		.loc 1 27 0
 101 0054 4FF47A70 		mov	r0, #1000
 102 0058 FFF7FEFF 		bl	CyDelay
 103              	.LVL10:
 104 005c 56E1     		b	.L4
 105              	.L3:
  28:main.c        ****             }
  29:main.c        ****             else if(signal[i] == 0 && signal[i+1] == 0 && signal[i+2] == 1)  //001
 106              		.loc 1 29 0
 107 005e 23BB     		cbnz	r3, .L5
 108              		.loc 1 29 0 is_stmt 0 discriminator 1
 109 0060 511C     		adds	r1, r2, #1
 110 0062 AD48     		ldr	r0, .L17
 111 0064 415C     		ldrb	r1, [r0, r1]	@ zero_extendqisi2
 112 0066 01BB     		cbnz	r1, .L5
 113              		.loc 1 29 0 discriminator 2
 114 0068 911C     		adds	r1, r2, #2
 115 006a 415C     		ldrb	r1, [r0, r1]	@ zero_extendqisi2
 116 006c 0129     		cmp	r1, #1
 117 006e 1CD1     		bne	.L5
  30:main.c        ****             {
  31:main.c        ****                 VDAC8_SetValue(MINUS);
 118              		.loc 1 31 0 is_stmt 1
 119 0070 0020     		movs	r0, #0
 120 0072 FFF7FEFF 		bl	VDAC8_SetValue
 121              	.LVL11:
  32:main.c        ****                 CyDelay(1000);
 122              		.loc 1 32 0
 123 0076 4FF47A70 		mov	r0, #1000
 124 007a FFF7FEFF 		bl	CyDelay
 125              	.LVL12:
  33:main.c        ****                 VDAC8_SetValue(PLUS);
 126              		.loc 1 33 0
 127 007e FF20     		movs	r0, #255
 128 0080 FFF7FEFF 		bl	VDAC8_SetValue
 129              	.LVL13:
  34:main.c        ****                 CyDelay(1000);
 130              		.loc 1 34 0
 131 0084 4FF47A70 		mov	r0, #1000
 132 0088 FFF7FEFF 		bl	CyDelay
 133              	.LVL14:
  35:main.c        ****                 VDAC8_SetValue(MINUS);
 134              		.loc 1 35 0
 135 008c 0020     		movs	r0, #0
 136 008e FFF7FEFF 		bl	VDAC8_SetValue
ARM GAS  C:\Users\slavi\AppData\Local\Temp\ccKdxulV.s 			page 4


 137              	.LVL15:
  36:main.c        ****                 CyDelay(1000);
 138              		.loc 1 36 0
 139 0092 4FF47A70 		mov	r0, #1000
 140 0096 FFF7FEFF 		bl	CyDelay
 141              	.LVL16:
  37:main.c        ****                 VDAC8_SetValue(PLUS);
 142              		.loc 1 37 0
 143 009a FF20     		movs	r0, #255
 144 009c FFF7FEFF 		bl	VDAC8_SetValue
 145              	.LVL17:
  38:main.c        ****                 CyDelay(1000);
 146              		.loc 1 38 0
 147 00a0 4FF47A70 		mov	r0, #1000
 148 00a4 FFF7FEFF 		bl	CyDelay
 149              	.LVL18:
 150 00a8 30E1     		b	.L4
 151              	.L5:
  39:main.c        ****             }
  40:main.c        ****             else if(signal[i] == 0 && signal[i+1] == 1 && signal[i+2] == 0)  //010
 152              		.loc 1 40 0
 153 00aa 23BB     		cbnz	r3, .L6
 154              		.loc 1 40 0 is_stmt 0 discriminator 1
 155 00ac 511C     		adds	r1, r2, #1
 156 00ae 9A48     		ldr	r0, .L17
 157 00b0 415C     		ldrb	r1, [r0, r1]	@ zero_extendqisi2
 158 00b2 0129     		cmp	r1, #1
 159 00b4 1FD1     		bne	.L6
 160              		.loc 1 40 0 discriminator 2
 161 00b6 911C     		adds	r1, r2, #2
 162 00b8 415C     		ldrb	r1, [r0, r1]	@ zero_extendqisi2
 163 00ba E1B9     		cbnz	r1, .L6
  41:main.c        ****             {
  42:main.c        ****                 VDAC8_SetValue(PLUS);
 164              		.loc 1 42 0 is_stmt 1
 165 00bc FF20     		movs	r0, #255
 166 00be FFF7FEFF 		bl	VDAC8_SetValue
 167              	.LVL19:
  43:main.c        ****                 CyDelay(1000);
 168              		.loc 1 43 0
 169 00c2 4FF47A70 		mov	r0, #1000
 170 00c6 FFF7FEFF 		bl	CyDelay
 171              	.LVL20:
  44:main.c        ****                 VDAC8_SetValue(MINUS);
 172              		.loc 1 44 0
 173 00ca 0020     		movs	r0, #0
 174 00cc FFF7FEFF 		bl	VDAC8_SetValue
 175              	.LVL21:
  45:main.c        ****                 CyDelay(1000);
 176              		.loc 1 45 0
 177 00d0 4FF47A70 		mov	r0, #1000
 178 00d4 FFF7FEFF 		bl	CyDelay
 179              	.LVL22:
  46:main.c        ****                 VDAC8_SetValue(MINUS);
 180              		.loc 1 46 0
 181 00d8 0020     		movs	r0, #0
 182 00da FFF7FEFF 		bl	VDAC8_SetValue
ARM GAS  C:\Users\slavi\AppData\Local\Temp\ccKdxulV.s 			page 5


 183              	.LVL23:
  47:main.c        ****                 CyDelay(1000);
 184              		.loc 1 47 0
 185 00de 4FF47A70 		mov	r0, #1000
 186 00e2 FFF7FEFF 		bl	CyDelay
 187              	.LVL24:
  48:main.c        ****                 VDAC8_SetValue(PLUS);
 188              		.loc 1 48 0
 189 00e6 FF20     		movs	r0, #255
 190 00e8 FFF7FEFF 		bl	VDAC8_SetValue
 191              	.LVL25:
  49:main.c        ****                 CyDelay(1000);
 192              		.loc 1 49 0
 193 00ec 4FF47A70 		mov	r0, #1000
 194 00f0 FFF7FEFF 		bl	CyDelay
 195              	.LVL26:
 196 00f4 0AE1     		b	.L4
 197              	.L6:
  50:main.c        ****             }
  51:main.c        ****             else if(signal[i] == 0 && signal[i+1] == 1 && signal[i+2] == 1)  //011
 198              		.loc 1 51 0
 199 00f6 2BBB     		cbnz	r3, .L7
 200              		.loc 1 51 0 is_stmt 0 discriminator 1
 201 00f8 511C     		adds	r1, r2, #1
 202 00fa 8748     		ldr	r0, .L17
 203 00fc 415C     		ldrb	r1, [r0, r1]	@ zero_extendqisi2
 204 00fe 0129     		cmp	r1, #1
 205 0100 20D1     		bne	.L7
 206              		.loc 1 51 0 discriminator 2
 207 0102 911C     		adds	r1, r2, #2
 208 0104 415C     		ldrb	r1, [r0, r1]	@ zero_extendqisi2
 209 0106 0129     		cmp	r1, #1
 210 0108 1CD1     		bne	.L7
  52:main.c        ****             {
  53:main.c        ****                 VDAC8_SetValue(MINUS);
 211              		.loc 1 53 0 is_stmt 1
 212 010a 0020     		movs	r0, #0
 213 010c FFF7FEFF 		bl	VDAC8_SetValue
 214              	.LVL27:
  54:main.c        ****                 CyDelay(1000);
 215              		.loc 1 54 0
 216 0110 4FF47A70 		mov	r0, #1000
 217 0114 FFF7FEFF 		bl	CyDelay
 218              	.LVL28:
  55:main.c        ****                 VDAC8_SetValue(PLUS);
 219              		.loc 1 55 0
 220 0118 FF20     		movs	r0, #255
 221 011a FFF7FEFF 		bl	VDAC8_SetValue
 222              	.LVL29:
  56:main.c        ****                 CyDelay(1000);
 223              		.loc 1 56 0
 224 011e 4FF47A70 		mov	r0, #1000
 225 0122 FFF7FEFF 		bl	CyDelay
 226              	.LVL30:
  57:main.c        ****                 VDAC8_SetValue(PLUS);
 227              		.loc 1 57 0
 228 0126 FF20     		movs	r0, #255
ARM GAS  C:\Users\slavi\AppData\Local\Temp\ccKdxulV.s 			page 6


 229 0128 FFF7FEFF 		bl	VDAC8_SetValue
 230              	.LVL31:
  58:main.c        ****                 CyDelay(1000);
 231              		.loc 1 58 0
 232 012c 4FF47A70 		mov	r0, #1000
 233 0130 FFF7FEFF 		bl	CyDelay
 234              	.LVL32:
  59:main.c        ****                 VDAC8_SetValue(MINUS);
 235              		.loc 1 59 0
 236 0134 0020     		movs	r0, #0
 237 0136 FFF7FEFF 		bl	VDAC8_SetValue
 238              	.LVL33:
  60:main.c        ****                 CyDelay(1000);
 239              		.loc 1 60 0
 240 013a 4FF47A70 		mov	r0, #1000
 241 013e FFF7FEFF 		bl	CyDelay
 242              	.LVL34:
 243 0142 E3E0     		b	.L4
 244              	.L7:
  61:main.c        ****             }
  62:main.c        ****             else if(signal[i] == 1 && signal[i+1] == 0 && signal[i+2] == 0)  //100
 245              		.loc 1 62 0
 246 0144 012B     		cmp	r3, #1
 247 0146 23D1     		bne	.L8
 248              		.loc 1 62 0 is_stmt 0 discriminator 1
 249 0148 511C     		adds	r1, r2, #1
 250 014a 7348     		ldr	r0, .L17
 251 014c 415C     		ldrb	r1, [r0, r1]	@ zero_extendqisi2
 252 014e F9B9     		cbnz	r1, .L8
 253              		.loc 1 62 0 discriminator 2
 254 0150 911C     		adds	r1, r2, #2
 255 0152 415C     		ldrb	r1, [r0, r1]	@ zero_extendqisi2
 256 0154 E1B9     		cbnz	r1, .L8
  63:main.c        ****             {
  64:main.c        ****                 VDAC8_SetValue(PLUS);
 257              		.loc 1 64 0 is_stmt 1
 258 0156 FF20     		movs	r0, #255
 259 0158 FFF7FEFF 		bl	VDAC8_SetValue
 260              	.LVL35:
  65:main.c        ****                 CyDelay(1000);
 261              		.loc 1 65 0
 262 015c 4FF47A70 		mov	r0, #1000
 263 0160 FFF7FEFF 		bl	CyDelay
 264              	.LVL36:
  66:main.c        ****                 VDAC8_SetValue(MINUS);
 265              		.loc 1 66 0
 266 0164 0020     		movs	r0, #0
 267 0166 FFF7FEFF 		bl	VDAC8_SetValue
 268              	.LVL37:
  67:main.c        ****                 CyDelay(1000);
 269              		.loc 1 67 0
 270 016a 4FF47A70 		mov	r0, #1000
 271 016e FFF7FEFF 		bl	CyDelay
 272              	.LVL38:
  68:main.c        ****                 VDAC8_SetValue(PLUS);
 273              		.loc 1 68 0
 274 0172 FF20     		movs	r0, #255
ARM GAS  C:\Users\slavi\AppData\Local\Temp\ccKdxulV.s 			page 7


 275 0174 FFF7FEFF 		bl	VDAC8_SetValue
 276              	.LVL39:
  69:main.c        ****                 CyDelay(1000);
 277              		.loc 1 69 0
 278 0178 4FF47A70 		mov	r0, #1000
 279 017c FFF7FEFF 		bl	CyDelay
 280              	.LVL40:
  70:main.c        ****                 VDAC8_SetValue(MINUS);
 281              		.loc 1 70 0
 282 0180 0020     		movs	r0, #0
 283 0182 FFF7FEFF 		bl	VDAC8_SetValue
 284              	.LVL41:
  71:main.c        ****                 CyDelay(1000);
 285              		.loc 1 71 0
 286 0186 4FF47A70 		mov	r0, #1000
 287 018a FFF7FEFF 		bl	CyDelay
 288              	.LVL42:
 289 018e BDE0     		b	.L4
 290              	.L8:
  72:main.c        ****             }
  73:main.c        ****             else if(signal[i] == 1 && signal[i+1] == 0 && signal[i+2] == 1)  //101
 291              		.loc 1 73 0
 292 0190 012B     		cmp	r3, #1
 293 0192 24D1     		bne	.L9
 294              		.loc 1 73 0 is_stmt 0 discriminator 1
 295 0194 511C     		adds	r1, r2, #1
 296 0196 6048     		ldr	r0, .L17
 297 0198 415C     		ldrb	r1, [r0, r1]	@ zero_extendqisi2
 298 019a 01BB     		cbnz	r1, .L9
 299              		.loc 1 73 0 discriminator 2
 300 019c 911C     		adds	r1, r2, #2
 301 019e 415C     		ldrb	r1, [r0, r1]	@ zero_extendqisi2
 302 01a0 0129     		cmp	r1, #1
 303 01a2 1CD1     		bne	.L9
  74:main.c        ****             {
  75:main.c        ****                 VDAC8_SetValue(PLUS);
 304              		.loc 1 75 0 is_stmt 1
 305 01a4 FF20     		movs	r0, #255
 306 01a6 FFF7FEFF 		bl	VDAC8_SetValue
 307              	.LVL43:
  76:main.c        ****                 CyDelay(1000);
 308              		.loc 1 76 0
 309 01aa 4FF47A70 		mov	r0, #1000
 310 01ae FFF7FEFF 		bl	CyDelay
 311              	.LVL44:
  77:main.c        ****                 VDAC8_SetValue(PLUS);
 312              		.loc 1 77 0
 313 01b2 FF20     		movs	r0, #255
 314 01b4 FFF7FEFF 		bl	VDAC8_SetValue
 315              	.LVL45:
  78:main.c        ****                 CyDelay(1000);
 316              		.loc 1 78 0
 317 01b8 4FF47A70 		mov	r0, #1000
 318 01bc FFF7FEFF 		bl	CyDelay
 319              	.LVL46:
  79:main.c        ****                 VDAC8_SetValue(MINUS);
 320              		.loc 1 79 0
ARM GAS  C:\Users\slavi\AppData\Local\Temp\ccKdxulV.s 			page 8


 321 01c0 0020     		movs	r0, #0
 322 01c2 FFF7FEFF 		bl	VDAC8_SetValue
 323              	.LVL47:
  80:main.c        ****                 CyDelay(1000);
 324              		.loc 1 80 0
 325 01c6 4FF47A70 		mov	r0, #1000
 326 01ca FFF7FEFF 		bl	CyDelay
 327              	.LVL48:
  81:main.c        ****                 VDAC8_SetValue(MINUS);
 328              		.loc 1 81 0
 329 01ce 0020     		movs	r0, #0
 330 01d0 FFF7FEFF 		bl	VDAC8_SetValue
 331              	.LVL49:
  82:main.c        ****                 CyDelay(1000);
 332              		.loc 1 82 0
 333 01d4 4FF47A70 		mov	r0, #1000
 334 01d8 FFF7FEFF 		bl	CyDelay
 335              	.LVL50:
 336 01dc 96E0     		b	.L4
 337              	.L9:
  83:main.c        ****             }
  84:main.c        ****             else if(signal[i] == 1 && signal[i+1] == 1 && signal[i+2] == 0)  //110
 338              		.loc 1 84 0
 339 01de 012B     		cmp	r3, #1
 340 01e0 47D1     		bne	.L10
 341              		.loc 1 84 0 is_stmt 0 discriminator 1
 342 01e2 511C     		adds	r1, r2, #1
 343 01e4 4C48     		ldr	r0, .L17
 344 01e6 415C     		ldrb	r1, [r0, r1]	@ zero_extendqisi2
 345 01e8 0129     		cmp	r1, #1
 346 01ea 42D1     		bne	.L10
 347              		.loc 1 84 0 discriminator 2
 348 01ec 911C     		adds	r1, r2, #2
 349 01ee 415C     		ldrb	r1, [r0, r1]	@ zero_extendqisi2
 350 01f0 0029     		cmp	r1, #0
 351 01f2 3ED1     		bne	.L10
  85:main.c        ****             {
  86:main.c        ****                 if(RDS == 0)
 352              		.loc 1 86 0 is_stmt 1
 353 01f4 EDB9     		cbnz	r5, .L11
  87:main.c        ****                 {
  88:main.c        ****                     VDAC8_SetValue(PLUS);
 354              		.loc 1 88 0
 355 01f6 FF20     		movs	r0, #255
 356 01f8 FFF7FEFF 		bl	VDAC8_SetValue
 357              	.LVL51:
  89:main.c        ****                     CyDelay(1000);
 358              		.loc 1 89 0
 359 01fc 4FF47A70 		mov	r0, #1000
 360 0200 FFF7FEFF 		bl	CyDelay
 361              	.LVL52:
  90:main.c        ****                     VDAC8_SetValue(PLUS);
 362              		.loc 1 90 0
 363 0204 FF20     		movs	r0, #255
 364 0206 FFF7FEFF 		bl	VDAC8_SetValue
 365              	.LVL53:
  91:main.c        ****                     CyDelay(1000);
ARM GAS  C:\Users\slavi\AppData\Local\Temp\ccKdxulV.s 			page 9


 366              		.loc 1 91 0
 367 020a 4FF47A70 		mov	r0, #1000
 368 020e FFF7FEFF 		bl	CyDelay
 369              	.LVL54:
  92:main.c        ****                     VDAC8_SetValue(MINUS);
 370              		.loc 1 92 0
 371 0212 0020     		movs	r0, #0
 372 0214 FFF7FEFF 		bl	VDAC8_SetValue
 373              	.LVL55:
  93:main.c        ****                     CyDelay(1000);
 374              		.loc 1 93 0
 375 0218 4FF47A70 		mov	r0, #1000
 376 021c FFF7FEFF 		bl	CyDelay
 377              	.LVL56:
  94:main.c        ****                     VDAC8_SetValue(PLUS);
 378              		.loc 1 94 0
 379 0220 FF20     		movs	r0, #255
 380 0222 FFF7FEFF 		bl	VDAC8_SetValue
 381              	.LVL57:
  95:main.c        ****                     CyDelay(1000);
 382              		.loc 1 95 0
 383 0226 4FF47A70 		mov	r0, #1000
 384 022a FFF7FEFF 		bl	CyDelay
 385              	.LVL58:
  96:main.c        ****                     RDS = 1;
 386              		.loc 1 96 0
 387 022e 0125     		movs	r5, #1
 388 0230 6CE0     		b	.L4
 389              	.LVL59:
 390              	.L11:
  97:main.c        ****                 }
  98:main.c        ****                 else if(RDS == 1)
 391              		.loc 1 98 0
 392 0232 002D     		cmp	r5, #0
 393 0234 6AD0     		beq	.L4
  99:main.c        ****                 {
 100:main.c        ****                     VDAC8_SetValue(MINUS);
 394              		.loc 1 100 0
 395 0236 0020     		movs	r0, #0
 396 0238 FFF7FEFF 		bl	VDAC8_SetValue
 397              	.LVL60:
 101:main.c        ****                     CyDelay(1000);
 398              		.loc 1 101 0
 399 023c 4FF47A70 		mov	r0, #1000
 400 0240 FFF7FEFF 		bl	CyDelay
 401              	.LVL61:
 102:main.c        ****                     VDAC8_SetValue(MINUS);
 402              		.loc 1 102 0
 403 0244 0020     		movs	r0, #0
 404 0246 FFF7FEFF 		bl	VDAC8_SetValue
 405              	.LVL62:
 103:main.c        ****                     CyDelay(1000);
 406              		.loc 1 103 0
 407 024a 4FF47A70 		mov	r0, #1000
 408 024e FFF7FEFF 		bl	CyDelay
 409              	.LVL63:
 104:main.c        ****                     VDAC8_SetValue(PLUS);
ARM GAS  C:\Users\slavi\AppData\Local\Temp\ccKdxulV.s 			page 10


 410              		.loc 1 104 0
 411 0252 FF20     		movs	r0, #255
 412 0254 FFF7FEFF 		bl	VDAC8_SetValue
 413              	.LVL64:
 105:main.c        ****                     CyDelay(1000);
 414              		.loc 1 105 0
 415 0258 4FF47A70 		mov	r0, #1000
 416 025c FFF7FEFF 		bl	CyDelay
 417              	.LVL65:
 106:main.c        ****                     VDAC8_SetValue(MINUS);
 418              		.loc 1 106 0
 419 0260 0020     		movs	r0, #0
 420 0262 FFF7FEFF 		bl	VDAC8_SetValue
 421              	.LVL66:
 107:main.c        ****                     CyDelay(1000);
 422              		.loc 1 107 0
 423 0266 4FF47A70 		mov	r0, #1000
 424 026a FFF7FEFF 		bl	CyDelay
 425              	.LVL67:
 108:main.c        ****                     RDS = 0;
 426              		.loc 1 108 0
 427 026e 0025     		movs	r5, #0
 428 0270 4CE0     		b	.L4
 429              	.LVL68:
 430              	.L10:
 109:main.c        ****                 }
 110:main.c        ****             }
 111:main.c        ****             else if(signal[i] == 1 && signal[i+1] == 1 && signal[i+2] == 1)  //111
 431              		.loc 1 111 0
 432 0272 012B     		cmp	r3, #1
 433 0274 4AD1     		bne	.L4
 434              		.loc 1 111 0 is_stmt 0 discriminator 1
 435 0276 531C     		adds	r3, r2, #1
 436 0278 2749     		ldr	r1, .L17
 437 027a CB5C     		ldrb	r3, [r1, r3]	@ zero_extendqisi2
 438 027c 012B     		cmp	r3, #1
 439 027e 45D1     		bne	.L4
 440              		.loc 1 111 0 discriminator 2
 441 0280 0232     		adds	r2, r2, #2
 442 0282 8B5C     		ldrb	r3, [r1, r2]	@ zero_extendqisi2
 443 0284 012B     		cmp	r3, #1
 444 0286 41D1     		bne	.L4
 112:main.c        ****             {
 113:main.c        ****                 if(RDS == 0)
 445              		.loc 1 113 0 is_stmt 1
 446 0288 EDB9     		cbnz	r5, .L12
 114:main.c        ****                 {
 115:main.c        ****                     VDAC8_SetValue(PLUS);
 447              		.loc 1 115 0
 448 028a FF20     		movs	r0, #255
 449 028c FFF7FEFF 		bl	VDAC8_SetValue
 450              	.LVL69:
 116:main.c        ****                     CyDelay(1000);
 451              		.loc 1 116 0
 452 0290 4FF47A70 		mov	r0, #1000
 453 0294 FFF7FEFF 		bl	CyDelay
 454              	.LVL70:
ARM GAS  C:\Users\slavi\AppData\Local\Temp\ccKdxulV.s 			page 11


 117:main.c        ****                     VDAC8_SetValue(MINUS);
 455              		.loc 1 117 0
 456 0298 0020     		movs	r0, #0
 457 029a FFF7FEFF 		bl	VDAC8_SetValue
 458              	.LVL71:
 118:main.c        ****                     CyDelay(1000);
 459              		.loc 1 118 0
 460 029e 4FF47A70 		mov	r0, #1000
 461 02a2 FFF7FEFF 		bl	CyDelay
 462              	.LVL72:
 119:main.c        ****                     VDAC8_SetValue(PLUS);
 463              		.loc 1 119 0
 464 02a6 FF20     		movs	r0, #255
 465 02a8 FFF7FEFF 		bl	VDAC8_SetValue
 466              	.LVL73:
 120:main.c        ****                     CyDelay(1000);
 467              		.loc 1 120 0
 468 02ac 4FF47A70 		mov	r0, #1000
 469 02b0 FFF7FEFF 		bl	CyDelay
 470              	.LVL74:
 121:main.c        ****                     VDAC8_SetValue(PLUS);
 471              		.loc 1 121 0
 472 02b4 FF20     		movs	r0, #255
 473 02b6 FFF7FEFF 		bl	VDAC8_SetValue
 474              	.LVL75:
 122:main.c        ****                     CyDelay(1000);
 475              		.loc 1 122 0
 476 02ba 4FF47A70 		mov	r0, #1000
 477 02be FFF7FEFF 		bl	CyDelay
 478              	.LVL76:
 123:main.c        ****                     RDS = 1;
 479              		.loc 1 123 0
 480 02c2 0125     		movs	r5, #1
 481 02c4 22E0     		b	.L4
 482              	.LVL77:
 483              	.L12:
 124:main.c        ****                 }
 125:main.c        ****                 else if(RDS == 1)
 484              		.loc 1 125 0
 485 02c6 EDB1     		cbz	r5, .L13
 126:main.c        ****                 {
 127:main.c        ****                     VDAC8_SetValue(MINUS);
 486              		.loc 1 127 0
 487 02c8 0020     		movs	r0, #0
 488 02ca FFF7FEFF 		bl	VDAC8_SetValue
 489              	.LVL78:
 128:main.c        ****                     CyDelay(1000);
 490              		.loc 1 128 0
 491 02ce 4FF47A70 		mov	r0, #1000
 492 02d2 FFF7FEFF 		bl	CyDelay
 493              	.LVL79:
 129:main.c        ****                     VDAC8_SetValue(PLUS);
 494              		.loc 1 129 0
 495 02d6 FF20     		movs	r0, #255
 496 02d8 FFF7FEFF 		bl	VDAC8_SetValue
 497              	.LVL80:
 130:main.c        ****                     CyDelay(1000);
ARM GAS  C:\Users\slavi\AppData\Local\Temp\ccKdxulV.s 			page 12


 498              		.loc 1 130 0
 499 02dc 4FF47A70 		mov	r0, #1000
 500 02e0 FFF7FEFF 		bl	CyDelay
 501              	.LVL81:
 131:main.c        ****                     VDAC8_SetValue(MINUS);
 502              		.loc 1 131 0
 503 02e4 0020     		movs	r0, #0
 504 02e6 FFF7FEFF 		bl	VDAC8_SetValue
 505              	.LVL82:
 132:main.c        ****                     CyDelay(1000);
 506              		.loc 1 132 0
 507 02ea 4FF47A70 		mov	r0, #1000
 508 02ee FFF7FEFF 		bl	CyDelay
 509              	.LVL83:
 133:main.c        ****                     VDAC8_SetValue(MINUS);
 510              		.loc 1 133 0
 511 02f2 0020     		movs	r0, #0
 512 02f4 FFF7FEFF 		bl	VDAC8_SetValue
 513              	.LVL84:
 134:main.c        ****                     CyDelay(1000);
 514              		.loc 1 134 0
 515 02f8 4FF47A70 		mov	r0, #1000
 516 02fc FFF7FEFF 		bl	CyDelay
 517              	.LVL85:
 135:main.c        ****                     RDS = 0;
 518              		.loc 1 135 0
 519 0300 0025     		movs	r5, #0
 520 0302 03E0     		b	.L4
 521              	.LVL86:
 522              	.L13:
 136:main.c        ****                 }
 137:main.c        ****                 else
 138:main.c        ****                 {
 139:main.c        ****                     CyDelay(3000);
 523              		.loc 1 139 0
 524 0304 40F6B830 		movw	r0, #3000
 525 0308 FFF7FEFF 		bl	CyDelay
 526              	.LVL87:
 527              	.L4:
  16:main.c        ****         {
 528              		.loc 1 16 0 discriminator 2
 529 030c 0334     		adds	r4, r4, #3
 530              	.LVL88:
 531 030e E4B2     		uxtb	r4, r4
 532              	.LVL89:
 533              	.L2:
  16:main.c        ****         {
 534              		.loc 1 16 0 is_stmt 0 discriminator 1
 535 0310 0B2C     		cmp	r4, #11
 536 0312 7FF67CAE 		bls	.L14
 537 0316 78E6     		b	.L15
 538              	.L18:
 539              		.align	2
 540              	.L17:
 541 0318 00000000 		.word	.LANCHOR0
 542              	.LBE2:
 543              		.cfi_endproc
ARM GAS  C:\Users\slavi\AppData\Local\Temp\ccKdxulV.s 			page 13


 544              	.LFE63:
 545              		.size	main, .-main
 546              		.global	signal
 547              		.data
 548              		.align	2
 549              		.set	.LANCHOR0,. + 0
 550              		.type	signal, %object
 551              		.size	signal, 12
 552              	signal:
 553 0000 01       		.byte	1
 554 0001 00       		.byte	0
 555 0002 01       		.byte	1
 556 0003 01       		.byte	1
 557 0004 00       		.byte	0
 558 0005 00       		.byte	0
 559 0006 00       		.byte	0
 560 0007 00       		.byte	0
 561 0008 01       		.byte	1
 562 0009 00       		.byte	0
 563 000a 01       		.byte	1
 564 000b 00       		.byte	0
 565              		.text
 566              	.Letext0:
 567              		.file 2 "c:\\program files (x86)\\cypress\\psoc creator\\4.4\\psoc creator\\import\\gnu\\arm\\5.4.
 568              		.file 3 "c:\\program files (x86)\\cypress\\psoc creator\\4.4\\psoc creator\\import\\gnu\\arm\\5.4.
 569              		.file 4 "Generated_Source\\PSoC5/cytypes.h"
 570              		.file 5 "Generated_Source\\PSoC5/core_cm3.h"
 571              		.file 6 "Generated_Source\\PSoC5/VDAC8.h"
 572              		.file 7 "Generated_Source\\PSoC5/CyLib.h"